target datalayout = "e-m:e-p270:32:32-p271:32:32-p272:64:64-i64:64-i128:128-f80:128-n8:16:32:64-S128"
target triple = "x86_64-pc-linux-gnu"

@.str.24 = private unnamed_addr constant [3 x i8] c"rb\00", align 1

; Function Attrs: nounwind uwtable
define ptr @dt_read_file(ptr noundef %0, ptr noundef %1) #0 {
  %3 = alloca ptr, align 8
  %4 = alloca ptr, align 8
  %5 = alloca ptr, align 8
  %6 = alloca ptr, align 8
  %7 = alloca i32, align 4
  %8 = alloca i64, align 8
  %9 = alloca ptr, align 8
  %10 = alloca i64, align 8
  store ptr %0, ptr %4, align 8, !tbaa !6
  store ptr %1, ptr %5, align 8, !tbaa !109
  %11 = load ptr, ptr %5, align 8, !tbaa !109
  %12 = icmp ne ptr %11, null
  br i1 %12, label %13, label %15

13:                                               ; preds = %2
  %14 = load ptr, ptr %5, align 8, !tbaa !109
  store i64 0, ptr %14, align 8, !tbaa !13
  br label %15

15:                                               ; preds = %13, %2
  call void @llvm.lifetime.start.p0(i64 8, ptr %6) #18
  %16 = load ptr, ptr %4, align 8, !tbaa !6
  %17 = call noalias ptr @fopen(ptr noundef %16, ptr noundef @.str.24)
  store ptr %17, ptr %6, align 8, !tbaa !103
  %18 = load ptr, ptr %6, align 8, !tbaa !103
  %19 = icmp ne ptr %18, null
  br i1 %19, label %21, label %20

20:                                               ; preds = %15
  store ptr null, ptr %3, align 8
  store i32 1, ptr %7, align 4
  br label %55

21:                                               ; preds = %15
  %22 = load ptr, ptr %6, align 8, !tbaa !103
  %23 = call i32 @fseek(ptr noundef %22, i64 noundef 0, i32 noundef 2)
  call void @llvm.lifetime.start.p0(i64 8, ptr %8) #18
  %24 = load ptr, ptr %6, align 8, !tbaa !103
  %25 = call i64 @ftell(ptr noundef %24)
  store i64 %25, ptr %8, align 8, !tbaa !13
  %26 = load ptr, ptr %6, align 8, !tbaa !103
  call void @rewind(ptr noundef %26)
  call void @llvm.lifetime.start.p0(i64 8, ptr %9) #18
  %27 = load i64, ptr %8, align 8, !tbaa !13
  %28 = mul i64 1, %27
  %29 = call noalias ptr @malloc(i64 noundef %28) #24
  store ptr %29, ptr %9, align 8, !tbaa !6
  %30 = load ptr, ptr %9, align 8, !tbaa !6
  %31 = icmp ne ptr %30, null
  br i1 %31, label %33, label %32

32:                                               ; preds = %21
  store ptr null, ptr %3, align 8
  store i32 1, ptr %7, align 4
  br label %54

33:                                               ; preds = %21
  call void @llvm.lifetime.start.p0(i64 8, ptr %10) #18
  %34 = load ptr, ptr %9, align 8, !tbaa !6
  %35 = load i64, ptr %8, align 8, !tbaa !13
  %36 = load ptr, ptr %6, align 8, !tbaa !103
  %37 = call i64 @fread(ptr noundef %34, i64 noundef 1, i64 noundef %35, ptr noundef %36)
  store i64 %37, ptr %10, align 8, !tbaa !13
  %38 = load ptr, ptr %6, align 8, !tbaa !103
  %39 = call i32 @fclose(ptr noundef %38)
  %40 = load i64, ptr %10, align 8, !tbaa !13
  %41 = load i64, ptr %8, align 8, !tbaa !13
  %42 = icmp eq i64 %40, %41
  br i1 %42, label %43, label %51

43:                                               ; preds = %33
  %44 = load ptr, ptr %5, align 8, !tbaa !109
  %45 = icmp ne ptr %44, null
  br i1 %45, label %46, label %49

46:                                               ; preds = %43
  %47 = load i64, ptr %8, align 8, !tbaa !13
  %48 = load ptr, ptr %5, align 8, !tbaa !109
  store i64 %47, ptr %48, align 8, !tbaa !13
  br label %49

49:                                               ; preds = %46, %43
  %50 = load ptr, ptr %9, align 8, !tbaa !6
  store ptr %50, ptr %3, align 8
  store i32 1, ptr %7, align 4
  br label %53

51:                                               ; preds = %33
  %52 = load ptr, ptr %9, align 8, !tbaa !6
  call void @free(ptr noundef %52) #18
  store ptr null, ptr %3, align 8
  store i32 1, ptr %7, align 4
  br label %53

53:                                               ; preds = %51, %49
  call void @llvm.lifetime.end.p0(i64 8, ptr %10) #18
  br label %54

54:                                               ; preds = %53, %32
  call void @llvm.lifetime.end.p0(i64 8, ptr %9) #18
  call void @llvm.lifetime.end.p0(i64 8, ptr %8) #18
  br label %55

55:                                               ; preds = %54, %20
  call void @llvm.lifetime.end.p0(i64 8, ptr %6) #18
  %56 = load ptr, ptr %3, align 8
  ret ptr %56
}