; Function Attrs: nounwind uwtable
define noalias noundef ptr @dt_read_file(ptr noundef readonly captures(none) %0, ptr noundef writeonly %1) local_unnamed_addr #0 {
  %.not = icmp eq ptr %1, null
  br i1 %.not, label %4, label %3

3:                                                ; preds = %2
  store i64 0, ptr %1, align 8, !tbaa !26
  br label %4

4:                                                ; preds = %3, %2
  %5 = tail call noalias ptr @fopen(ptr noundef %0, ptr noundef nonnull @.str.24)
  %.not25 = icmp eq ptr %5, null
  br i1 %.not25, label %17, label %6

6:                                                ; preds = %4
  %7 = tail call i32 @fseek(ptr noundef nonnull %5, i64 noundef 0, i32 noundef 2)
  %8 = tail call i64 @ftell(ptr noundef nonnull %5)
  tail call void @rewind(ptr noundef nonnull %5)
  %9 = tail call noalias ptr @malloc(i64 noundef %8) #28
  %.not26 = icmp eq ptr %9, null
  br i1 %.not26, label %17, label %10

10:                                               ; preds = %6
  %11 = tail call i64 @fread(ptr noundef nonnull %9, i64 noundef 1, i64 noundef %8, ptr noundef nonnull %5)
  %12 = tail call i32 @fclose(ptr noundef nonnull %5)
  %13 = icmp eq i64 %11, %8
  br i1 %13, label %14, label %16

14:                                               ; preds = %10
  br i1 %.not, label %17, label %15

15:                                               ; preds = %14
  store i64 %8, ptr %1, align 8, !tbaa !26
  br label %17

16:                                               ; preds = %10
  tail call void @free(ptr noundef nonnull %9) #27
  br label %17

17:                                               ; preds = %6, %14, %15, %16, %4
  %.0 = phi ptr [ null, %4 ], [ null, %6 ], [ null, %16 ], [ %9, %15 ], [ %9, %14 ]
  ret ptr %.0
}